; Function Attrs: nounwind uwtable
define zeroext range(i8 0, 2) i8 @l_Lean_Omega_UpperBound_sat(ptr noundef %0, ptr noundef %1) local_unnamed_addr #1 {
  %3 = ptrtoint ptr %0 to i64
  %4 = and i64 %3, 1
  %.not.i = icmp eq i64 %4, 0
  br i1 %.not.i, label %8, label %5

5:                                                ; preds = %2
  %6 = lshr i64 %3, 1
  %7 = trunc i64 %6 to i32
  br label %lean_obj_tag.exit

8:                                                ; preds = %2
  %9 = getelementptr i8, ptr %0, i64 4
  %.val.i = load i32, ptr %9, align 4
  %10 = lshr i32 %.val.i, 24
  br label %lean_obj_tag.exit

lean_obj_tag.exit:                                ; preds = %5, %8
  %.0.i = phi i32 [ %7, %5 ], [ %10, %8 ]
  %11 = icmp eq i32 %.0.i, 0
  br i1 %11, label %28, label %12

12:                                               ; preds = %lean_obj_tag.exit
  %13 = getelementptr inbounds nuw i8, ptr %0, i64 8
  %14 = load ptr, ptr %13, align 8, !tbaa !11
  %15 = ptrtoint ptr %1 to i64
  %16 = and i64 %15, 1
  %.not.i.i = icmp eq i64 %16, 0
  br i1 %.not.i.i, label %.critedge.i.i, label %17, !prof !4

17:                                               ; preds = %12
  %18 = ptrtoint ptr %14 to i64
  %19 = and i64 %18, 1
  %.not7.i.i = icmp eq i64 %19, 0
  br i1 %.not7.i.i, label %.critedge.i.i, label %20, !prof !4

20:                                               ; preds = %17
  %21 = lshr i64 %15, 1
  %22 = trunc i64 %21 to i32
  %23 = lshr i64 %18, 1
  %24 = trunc i64 %23 to i32
  %25 = icmp sle i32 %22, %24
  br label %lean_int_dec_le.exit

.critedge.i.i:                                    ; preds = %17, %12
  %26 = tail call zeroext i1 @lean_int_big_le(ptr noundef %1, ptr noundef %14) #4
  br label %lean_int_dec_le.exit

lean_int_dec_le.exit:                             ; preds = %20, %.critedge.i.i
  %.0.i.i = phi i1 [ %25, %20 ], [ %26, %.critedge.i.i ]
  %27 = zext i1 %.0.i.i to i8
  br label %28

28:                                               ; preds = %lean_obj_tag.exit, %lean_int_dec_le.exit
  %.0 = phi i8 [ %27, %lean_int_dec_le.exit ], [ 1, %lean_obj_tag.exit ]
  ret i8 %.0
}